target datalayout = "e-m:e-p270:32:32-p271:32:32-p272:64:64-i64:64-i128:128-f80:128-n8:16:32:64-S128"
target triple = "x86_64-pc-linux-gnu"

%struct.ma_vec3f = type { float, float, float }
%struct.ma_atomic_float = type { float }
%struct.ma_linear_resampler = type { %struct.ma_linear_resampler_config, i32, i32, i32, i32, %union.anon.24, %union.anon.25, %struct.ma_lpf, ptr, i32 }
%struct.ma_linear_resampler_config = type { i32, i32, i32, i32, i32, double }
%union.anon.24 = type { ptr }
%union.anon.25 = type { ptr }
%struct.ma_lpf = type { i32, i32, i32, i32, i32, ptr, ptr, ptr, i32 }
%struct.ma_gainer_config = type { i32, i32 }
%struct.ma_gainer = type { %struct.ma_gainer_config, i32, float, ptr, ptr, ptr, i32 }
%struct.ma_panner = type { i32, i32, i32, float }
%struct.ma_fader_config = type { i32, i32, i32 }
%struct.ma_fader = type { %struct.ma_fader_config, float, float, i64, i64 }
%struct.ma_atomic_vec3f = type { %struct.ma_vec3f, i32 }
%struct.ma_spatializer = type { i32, i32, ptr, i32, i32, i32, float, float, float, float, float, float, float, float, float, float, i32, %struct.ma_atomic_vec3f, %struct.ma_atomic_vec3f, %struct.ma_atomic_vec3f, float, float, %struct.ma_gainer, ptr, ptr, i32 }
%union.ma_atomic_if32 = type { i32 }
%struct.ma_node_base = type { ptr, ptr, ptr, i16, i16, i16, i16, i32, [2 x i64], i64, i32, i32, ptr, ptr, [2 x %struct.ma_node_input_bus], [2 x %struct.ma_node_output_bus], ptr, i32 }
%struct.ma_node_input_bus = type { %struct.ma_node_output_bus, i32, i32, i8 }
%struct.ma_node_output_bus = type { ptr, i8, i8, i8, i32, i32, i32, i32, float, ptr, ptr, ptr }
%struct.ma_engine_node = type { %struct.ma_node_base, ptr, i32, i32, i32, %struct.ma_fader, %struct.ma_linear_resampler, %struct.ma_spatializer, %struct.ma_panner, %struct.ma_gainer, %struct.ma_atomic_float, float, float, float, i32, i32, i32, %struct.anon.73, i8, ptr }
%struct.anon.73 = type { %struct.ma_atomic_float, %struct.ma_atomic_float, %struct.ma_atomic_uint64, %struct.ma_atomic_uint64 }
%struct.ma_atomic_uint64 = type { i64 }
%struct.ma_sound = type { %struct.ma_engine_node, ptr, i64, i32, ptr, ptr, i8, ptr }

; Function Attrs: alwaysinline nounwind uwtable
define internal void @ma_atomic_store_explicit_f32(ptr noundef %0, float noundef %1, i32 noundef %2) #7 {
  %4 = alloca ptr, align 8
  %5 = alloca float, align 4
  %6 = alloca i32, align 4
  %7 = alloca %union.ma_atomic_if32, align 4
  %8 = alloca i32, align 4
  store ptr %0, ptr %4, align 8, !tbaa !353
  store float %1, ptr %5, align 4, !tbaa !339
  store i32 %2, ptr %6, align 4, !tbaa !8
  call void @llvm.lifetime.start.p0(i64 4, ptr %7) #16
  %9 = load float, ptr %5, align 4, !tbaa !339
  store float %9, ptr %7, align 4, !tbaa !14
  %10 = load ptr, ptr %4, align 8, !tbaa !353
  %11 = load i32, ptr %6, align 4, !tbaa !8
  %12 = load i32, ptr %7, align 4, !tbaa !14
  store i32 %12, ptr %8, align 4, !tbaa !8
  switch i32 %11, label %13 [
    i32 3, label %15
    i32 5, label %17
  ]

13:                                               ; preds = %3
  %14 = load i32, ptr %8, align 4
  store atomic volatile i32 %14, ptr %10 monotonic, align 4
  br label %19

15:                                               ; preds = %3
  %16 = load i32, ptr %8, align 4
  store atomic volatile i32 %16, ptr %10 release, align 4
  br label %19

17:                                               ; preds = %3
  %18 = load i32, ptr %8, align 4
  store atomic volatile i32 %18, ptr %10 seq_cst, align 4
  br label %19

19:                                               ; preds = %17, %15, %13
  call void @llvm.lifetime.end.p0(i64 4, ptr %7) #16
  ret void
}

; Function Attrs: alwaysinline nounwind uwtable
define internal void @ma_atomic_uint64_set(ptr noundef %0, i64 noundef %1) #7 {
  %3 = alloca ptr, align 8
  %4 = alloca i64, align 8
  %5 = alloca i64, align 8
  store ptr %0, ptr %3, align 8, !tbaa !25
  store i64 %1, ptr %4, align 8, !tbaa !47
  %6 = load ptr, ptr %3, align 8, !tbaa !25
  %7 = getelementptr inbounds nuw %struct.ma_atomic_uint64, ptr %6, i32 0, i32 0
  %8 = load i64, ptr %4, align 8, !tbaa !47
  store i64 %8, ptr %5, align 8, !tbaa !47
  %9 = load i64, ptr %5, align 8
  store atomic i64 %9, ptr %7 seq_cst, align 8
  ret void
}

; Function Attrs: alwaysinline nounwind uwtable
define internal void @ma_atomic_float_set(ptr noundef %0, float noundef %1) #7 {
  %3 = alloca ptr, align 8
  %4 = alloca float, align 4
  store ptr %0, ptr %3, align 8, !tbaa !25
  store float %1, ptr %4, align 4, !tbaa !339
  %5 = load ptr, ptr %3, align 8, !tbaa !25
  %6 = getelementptr inbounds nuw %struct.ma_atomic_float, ptr %5, i32 0, i32 0
  %7 = load float, ptr %4, align 4, !tbaa !339
  call void @ma_atomic_store_explicit_f32(ptr noundef %6, float noundef %7, i32 noundef 5)
  ret void
}

; Function Attrs: nounwind uwtable
define void @ma_sound_set_fade_start_in_pcm_frames(ptr noundef %0, float noundef %1, float noundef %2, i64 noundef %3, i64 noundef %4) #0 {
  %6 = alloca ptr, align 8
  %7 = alloca float, align 4
  %8 = alloca float, align 4
  %9 = alloca i64, align 8
  %10 = alloca i64, align 8
  store ptr %0, ptr %6, align 8, !tbaa !1471
  store float %1, ptr %7, align 4, !tbaa !339
  store float %2, ptr %8, align 4, !tbaa !339
  store i64 %3, ptr %9, align 8, !tbaa !47
  store i64 %4, ptr %10, align 8, !tbaa !47
  %11 = load ptr, ptr %6, align 8, !tbaa !1471
  %12 = icmp eq ptr %11, null
  br i1 %12, label %13, label %14

13:                                               ; preds = %5
  br label %35

14:                                               ; preds = %5
  %15 = load ptr, ptr %6, align 8, !tbaa !1471
  %16 = getelementptr inbounds nuw %struct.ma_sound, ptr %15, i32 0, i32 0
  %17 = getelementptr inbounds nuw %struct.ma_engine_node, ptr %16, i32 0, i32 17
  %18 = getelementptr inbounds nuw %struct.anon.73, ptr %17, i32 0, i32 0
  %19 = load float, ptr %7, align 4, !tbaa !339
  call void @ma_atomic_float_set(ptr noundef %18, float noundef %19)
  %20 = load ptr, ptr %6, align 8, !tbaa !1471
  %21 = getelementptr inbounds nuw %struct.ma_sound, ptr %20, i32 0, i32 0
  %22 = getelementptr inbounds nuw %struct.ma_engine_node, ptr %21, i32 0, i32 17
  %23 = getelementptr inbounds nuw %struct.anon.73, ptr %22, i32 0, i32 1
  %24 = load float, ptr %8, align 4, !tbaa !339
  call void @ma_atomic_float_set(ptr noundef %23, float noundef %24)
  %25 = load ptr, ptr %6, align 8, !tbaa !1471
  %26 = getelementptr inbounds nuw %struct.ma_sound, ptr %25, i32 0, i32 0
  %27 = getelementptr inbounds nuw %struct.ma_engine_node, ptr %26, i32 0, i32 17
  %28 = getelementptr inbounds nuw %struct.anon.73, ptr %27, i32 0, i32 2
  %29 = load i64, ptr %9, align 8, !tbaa !47
  call void @ma_atomic_uint64_set(ptr noundef %28, i64 noundef %29)
  %30 = load ptr, ptr %6, align 8, !tbaa !1471
  %31 = getelementptr inbounds nuw %struct.ma_sound, ptr %30, i32 0, i32 0
  %32 = getelementptr inbounds nuw %struct.ma_engine_node, ptr %31, i32 0, i32 17
  %33 = getelementptr inbounds nuw %struct.anon.73, ptr %32, i32 0, i32 3
  %34 = load i64, ptr %10, align 8, !tbaa !47
  call void @ma_atomic_uint64_set(ptr noundef %33, i64 noundef %34)
  br label %35

35:                                               ; preds = %14, %13
  ret void
}

; Function Attrs: nounwind uwtable
define void @ma_sound_set_fade_in_pcm_frames(ptr noundef %0, float noundef %1, float noundef %2, i64 noundef %3) #0 {
  %5 = alloca ptr, align 8
  %6 = alloca float, align 4
  %7 = alloca float, align 4
  %8 = alloca i64, align 8
  store ptr %0, ptr %5, align 8, !tbaa !1471
  store float %1, ptr %6, align 4, !tbaa !339
  store float %2, ptr %7, align 4, !tbaa !339
  store i64 %3, ptr %8, align 8, !tbaa !47
  %9 = load ptr, ptr %5, align 8, !tbaa !1471
  %10 = icmp eq ptr %9, null
  br i1 %10, label %11, label %12

11:                                               ; preds = %4
  br label %17

12:                                               ; preds = %4
  %13 = load ptr, ptr %5, align 8, !tbaa !1471
  %14 = load float, ptr %6, align 4, !tbaa !339
  %15 = load float, ptr %7, align 4, !tbaa !339
  %16 = load i64, ptr %8, align 8, !tbaa !47
  call void @ma_sound_set_fade_start_in_pcm_frames(ptr noundef %13, float noundef %14, float noundef %15, i64 noundef %16, i64 noundef -1)
  br label %17

17:                                               ; preds = %12, %11
  ret void
}