; Function Attrs: nofree norecurse nounwind memory(argmem: readwrite, inaccessiblemem: readwrite) uwtable
define void @ma_sound_set_fade_in_pcm_frames(ptr noundef %0, float noundef %1, float noundef %2, i64 noundef %3) local_unnamed_addr #16 {
  %5 = icmp eq ptr %0, null
  br i1 %5, label %12, label %ma_sound_set_fade_start_in_pcm_frames.exit

ma_sound_set_fade_start_in_pcm_frames.exit:       ; preds = %4
  %6 = getelementptr inbounds nuw i8, ptr %0, i64 856
  %7 = bitcast float %1 to i32
  store atomic volatile i32 %7, ptr %6 seq_cst, align 4
  %8 = getelementptr inbounds nuw i8, ptr %0, i64 860
  %9 = bitcast float %2 to i32
  store atomic volatile i32 %9, ptr %8 seq_cst, align 4
  %10 = getelementptr inbounds nuw i8, ptr %0, i64 864
  store atomic i64 %3, ptr %10 seq_cst, align 8
  %11 = getelementptr inbounds nuw i8, ptr %0, i64 872
  store atomic i64 -1, ptr %11 seq_cst, align 8
  br label %12

12:                                               ; preds = %4, %ma_sound_set_fade_start_in_pcm_frames.exit
  ret void
}